; Function Attrs: mustprogress nounwind uwtable
define dso_local void @_ZN4base5debug21GlobalActivityTracker12OnTLSDestroyEPv(ptr noundef %value) #4 align 2 {
entry:
  %isnull = icmp eq ptr %value, null
  br i1 %isnull, label %delete.end, label %delete.notnull

delete.notnull:                                   ; preds = %entry
  %vtable = load ptr, ptr %value, align 8
  %vfn = getelementptr inbounds i8, ptr %vtable, i64 8
  %0 = load ptr, ptr %vfn, align 8
  tail call void %0(ptr noundef nonnull align 8 dereferenceable(48) %value) #17
  br label %delete.end

delete.end:                                       ; preds = %delete.notnull, %entry
  ret void
}